target datalayout = "e-m:e-p270:32:32-p271:32:32-p272:64:64-i64:64-i128:128-f80:128-n8:16:32:64-S128"
target triple = "x86_64-pc-linux-gnu"

@.str.146 = private unnamed_addr constant [33 x i8] c"invalid weight specification: %s\00", align 1
@.str.147 = private unnamed_addr constant [50 x i8] c"weight specification out of range (0 .. %d): %lld\00", align 1

; Function Attrs: nounwind uwtable
define internal i32 @parseScriptWeight(ptr noundef %0, ptr noundef %1) #0 {
  %3 = alloca ptr, align 8
  %4 = alloca ptr, align 8
  %5 = alloca ptr, align 8
  %6 = alloca i32, align 4
  %7 = alloca i32, align 4
  %8 = alloca i64, align 8
  %9 = alloca ptr, align 8
  store ptr %0, ptr %3, align 8
  store ptr %1, ptr %4, align 8
  call void @llvm.lifetime.start.p0(i64 8, ptr %5) #14
  call void @llvm.lifetime.start.p0(i64 4, ptr %6) #14
  %10 = load ptr, ptr %3, align 8
  %11 = call ptr @strrchr(ptr noundef %10, i32 noundef 64) #17
  store ptr %11, ptr %5, align 8
  %12 = icmp ne ptr %11, null
  br i1 %12, label %13, label %72

13:                                               ; preds = %2
  call void @llvm.lifetime.start.p0(i64 4, ptr %7) #14
  %14 = load ptr, ptr %5, align 8
  %15 = load ptr, ptr %3, align 8
  %16 = ptrtoint ptr %14 to i64
  %17 = ptrtoint ptr %15 to i64
  %18 = sub i64 %16, %17
  %19 = trunc i64 %18 to i32
  store i32 %19, ptr %7, align 4
  call void @llvm.lifetime.start.p0(i64 8, ptr %8) #14
  call void @llvm.lifetime.start.p0(i64 8, ptr %9) #14
  %20 = load i32, ptr %7, align 4
  %21 = add i32 %20, 1
  %22 = sext i32 %21 to i64
  %23 = call ptr @pg_malloc(i64 noundef %22)
  %24 = load ptr, ptr %4, align 8
  store ptr %23, ptr %24, align 8
  %25 = load ptr, ptr %4, align 8
  %26 = load ptr, ptr %25, align 8
  %27 = load ptr, ptr %3, align 8
  %28 = load i32, ptr %7, align 4
  %29 = sext i32 %28 to i64
  %30 = call ptr @strncpy(ptr noundef %26, ptr noundef %27, i64 noundef %29) #14
  %31 = load ptr, ptr %4, align 8
  %32 = load ptr, ptr %31, align 8
  %33 = load i32, ptr %7, align 4
  %34 = sext i32 %33 to i64
  %35 = getelementptr inbounds i8, ptr %32, i64 %34
  store i8 0, ptr %35, align 1
  %36 = call ptr @__errno_location() #15
  store i32 0, ptr %36, align 4
  %37 = load ptr, ptr %5, align 8
  %38 = getelementptr inbounds i8, ptr %37, i64 1
  %39 = call i64 @strtol(ptr noundef %38, ptr noundef %9, i32 noundef 10) #14
  store i64 %39, ptr %8, align 8
  %40 = call ptr @__errno_location() #15
  %41 = load i32, ptr %40, align 4
  %42 = icmp ne i32 %41, 0
  br i1 %42, label %53, label %43

43:                                               ; preds = %13
  %44 = load ptr, ptr %9, align 8
  %45 = load ptr, ptr %5, align 8
  %46 = getelementptr inbounds i8, ptr %45, i64 1
  %47 = icmp eq ptr %44, %46
  br i1 %47, label %53, label %48

48:                                               ; preds = %43
  %49 = load ptr, ptr %9, align 8
  %50 = load i8, ptr %49, align 1
  %51 = sext i8 %50 to i32
  %52 = icmp ne i32 %51, 0
  br i1 %52, label %53, label %58

53:                                               ; preds = %48, %43, %13
  br label %54

54:                                               ; preds = %53
  %55 = load ptr, ptr %5, align 8
  call void (i32, i32, ptr, ...) @pg_log_generic(i32 noundef 4, i32 noundef 0, ptr noundef @.str.146, ptr noundef %55)
  call void @exit(i32 noundef 1) #16
  unreachable

56:                                               ; No predecessors!
  br label %57

57:                                               ; preds = %56
  br label %58

58:                                               ; preds = %57, %48
  %59 = load i64, ptr %8, align 8
  %60 = icmp sgt i64 %59, 2147483647
  br i1 %60, label %64, label %61

61:                                               ; preds = %58
  %62 = load i64, ptr %8, align 8
  %63 = icmp slt i64 %62, 0
  br i1 %63, label %64, label %69

64:                                               ; preds = %61, %58
  br label %65

65:                                               ; preds = %64
  %66 = load i64, ptr %8, align 8
  call void (i32, i32, ptr, ...) @pg_log_generic(i32 noundef 4, i32 noundef 0, ptr noundef @.str.147, i32 noundef 2147483647, i64 noundef %66)
  call void @exit(i32 noundef 1) #16
  unreachable

67:                                               ; No predecessors!
  br label %68

68:                                               ; preds = %67
  br label %69

69:                                               ; preds = %68, %61
  %70 = load i64, ptr %8, align 8
  %71 = trunc i64 %70 to i32
  store i32 %71, ptr %6, align 4
  call void @llvm.lifetime.end.p0(i64 8, ptr %9) #14
  call void @llvm.lifetime.end.p0(i64 8, ptr %8) #14
  call void @llvm.lifetime.end.p0(i64 4, ptr %7) #14
  br label %76

72:                                               ; preds = %2
  %73 = load ptr, ptr %3, align 8
  %74 = call ptr @pg_strdup(ptr noundef %73)
  %75 = load ptr, ptr %4, align 8
  store ptr %74, ptr %75, align 8
  store i32 1, ptr %6, align 4
  br label %76

76:                                               ; preds = %72, %69
  %77 = load i32, ptr %6, align 4
  call void @llvm.lifetime.end.p0(i64 4, ptr %6) #14
  call void @llvm.lifetime.end.p0(i64 8, ptr %5) #14
  ret i32 %77
}