; Function Attrs: nounwind uwtable
define internal fastcc range(i32 0, -2147483648) i32 @parseScriptWeight(ptr noundef %0, ptr noundef nonnull captures(none) initializes((0, 8)) %1) unnamed_addr #0 {
  %3 = alloca ptr, align 8
  %4 = tail call ptr @strrchr(ptr noundef nonnull dereferenceable(1) %0, i32 noundef 64) #27
  %.not = icmp eq ptr %4, null
  br i1 %.not, label %30, label %5

5:                                                ; preds = %2
  %6 = ptrtoint ptr %4 to i64
  %7 = ptrtoint ptr %0 to i64
  %8 = sub i64 %6, %7
  call void @llvm.lifetime.start.p0(i64 8, ptr nonnull %3) #25
  %9 = shl i64 %8, 32
  %sext = add i64 %9, 4294967296
  %10 = ashr exact i64 %sext, 32
  %11 = tail call ptr @pg_malloc(i64 noundef %10) #25
  store ptr %11, ptr %1, align 8
  %12 = ashr exact i64 %9, 32
  %13 = tail call ptr @strncpy(ptr noundef %11, ptr noundef nonnull %0, i64 noundef %12) #25
  %14 = load ptr, ptr %1, align 8
  %15 = getelementptr inbounds i8, ptr %14, i64 %12
  store i8 0, ptr %15, align 1
  %16 = tail call ptr @__errno_location() #24
  store i32 0, ptr %16, align 4
  %17 = getelementptr inbounds nuw i8, ptr %4, i64 1
  %18 = call i64 @strtol(ptr noundef nonnull %17, ptr noundef nonnull %3, i32 noundef 10) #25
  %19 = load i32, ptr %16, align 4
  %.not24 = icmp eq i32 %19, 0
  br i1 %.not24, label %20, label %25

20:                                               ; preds = %5
  %21 = load ptr, ptr %3, align 8
  %22 = icmp eq ptr %21, %17
  br i1 %22, label %25, label %23

23:                                               ; preds = %20
  %24 = load i8, ptr %21, align 1
  %.not25 = icmp eq i8 %24, 0
  br i1 %.not25, label %26, label %25

25:                                               ; preds = %5, %20, %23
  tail call void (i32, i32, ptr, ...) @pg_log_generic(i32 noundef 4, i32 noundef 0, ptr noundef nonnull @.str.146, ptr noundef nonnull %4) #25
  tail call void @exit(i32 noundef 1) #26
  unreachable

26:                                               ; preds = %23
  %or.cond = icmp ugt i64 %18, 2147483647
  br i1 %or.cond, label %27, label %28

27:                                               ; preds = %26
  tail call void (i32, i32, ptr, ...) @pg_log_generic(i32 noundef 4, i32 noundef 0, ptr noundef nonnull @.str.147, i32 noundef 2147483647, i64 noundef %18) #25
  tail call void @exit(i32 noundef 1) #26
  unreachable

28:                                               ; preds = %26
  %29 = trunc nuw nsw i64 %18 to i32
  call void @llvm.lifetime.end.p0(i64 8, ptr nonnull %3) #25
  br label %32

30:                                               ; preds = %2
  %31 = tail call ptr @pg_strdup(ptr noundef nonnull %0) #25
  store ptr %31, ptr %1, align 8
  br label %32

32:                                               ; preds = %30, %28
  %.0 = phi i32 [ %29, %28 ], [ 1, %30 ]
  ret i32 %.0
}